; Function Attrs: mustprogress uwtable
define void @_ZN2cv21DetectionBasedTracker21SeparateDetectionWork13resetTrackingEv(ptr noundef nonnull align 8 dereferenceable(320) %0) local_unnamed_addr #0 align 2 personality ptr @__gxx_personality_v0 {
  %2 = getelementptr inbounds nuw i8, ptr %0, i64 40
  %3 = tail call noundef i32 @pthread_mutex_lock(ptr noundef nonnull align 8 dereferenceable(40) %2) #26
  %.not.i.i.i = icmp eq i32 %3, 0
  br i1 %.not.i.i.i, label %_ZNSt11unique_lockISt5mutexEC2ERS0_.exit, label %4

4:                                                ; preds = %1
  tail call void @_ZSt20__throw_system_errori(i32 noundef %3) #27
  unreachable

_ZNSt11unique_lockISt5mutexEC2ERS0_.exit:         ; preds = %1
  %5 = getelementptr inbounds nuw i8, ptr %0, i64 204
  %6 = load volatile i32, ptr %5, align 4, !tbaa !44
  %7 = icmp eq i32 %6, 2
  br i1 %7, label %8, label %10

8:                                                ; preds = %_ZNSt11unique_lockISt5mutexEC2ERS0_.exit
  %9 = getelementptr inbounds nuw i8, ptr %0, i64 201
  store volatile i8 1, ptr %9, align 1, !tbaa !43
  br label %10

10:                                               ; preds = %_ZNSt11unique_lockISt5mutexEC2ERS0_.exit, %8
  %11 = getelementptr inbounds nuw i8, ptr %0, i64 176
  %12 = load ptr, ptr %11, align 8, !tbaa !51
  %13 = getelementptr inbounds nuw i8, ptr %0, i64 184
  %14 = load ptr, ptr %13, align 8, !tbaa !76
  %.not.i.i = icmp eq ptr %14, %12
  br i1 %.not.i.i, label %_ZNSt11unique_lockISt5mutexED2Ev.exit, label %15

15:                                               ; preds = %10
  store ptr %12, ptr %13, align 8, !tbaa !76
  br label %_ZNSt11unique_lockISt5mutexED2Ev.exit

_ZNSt11unique_lockISt5mutexED2Ev.exit:            ; preds = %15, %10
  %16 = getelementptr inbounds nuw i8, ptr %0, i64 200
  store volatile i8 0, ptr %16, align 8, !tbaa !10
  %17 = tail call noundef i32 @pthread_mutex_unlock(ptr noundef nonnull align 8 dereferenceable(40) %2) #26
  ret void
}